target datalayout = "e-m:e-p270:32:32-p271:32:32-p272:64:64-i64:64-i128:128-f80:128-n8:16:32:64-S128"
target triple = "x86_64-pc-linux-gnu"

%struct.Aig_Man_t_ = type { ptr, ptr, ptr, ptr, ptr, ptr, ptr, %struct.Aig_Obj_t_, i32, i32, i32, i32, i32, i32, [7 x i32], i32, ptr, i32, ptr, i32, ptr, i32, i32, i32, ptr, i32, i32, i32, i32, i32, ptr, ptr, i32, ptr, ptr, i32, ptr, ptr, i32, i32, i32, ptr, ptr, ptr, ptr, ptr, ptr, ptr, ptr, ptr, ptr, ptr, ptr, ptr, ptr, i32, ptr, ptr, ptr, ptr, i32, i64, i64, i64, ptr, ptr }
%struct.Aig_Obj_t_ = type { %union.anon, ptr, ptr, i64, i32, i32, %union.anon.0 }
%union.anon = type { ptr }
%union.anon.0 = type { ptr }
%struct.Vec_Ptr_t_ = type { i32, i32, ptr }

; Function Attrs: inlinehint nounwind uwtable
define internal i32 @Saig_ManPoNum(ptr noundef %0) #2 {
  %2 = alloca ptr, align 8
  store ptr %0, ptr %2, align 8, !tbaa !3
  %3 = load ptr, ptr %2, align 8, !tbaa !3
  %4 = getelementptr inbounds nuw %struct.Aig_Man_t_, ptr %3, i32 0, i32 10
  %5 = load i32, ptr %4, align 8, !tbaa !58
  ret i32 %5
}

; Function Attrs: inlinehint nounwind uwtable
define internal ptr @Vec_PtrEntry(ptr noundef %0, i32 noundef %1) #2 {
  %3 = alloca ptr, align 8
  %4 = alloca i32, align 4
  store ptr %0, ptr %3, align 8, !tbaa !29
  store i32 %1, ptr %4, align 4, !tbaa !8
  %5 = load ptr, ptr %3, align 8, !tbaa !29
  %6 = getelementptr inbounds nuw %struct.Vec_Ptr_t_, ptr %5, i32 0, i32 2
  %7 = load ptr, ptr %6, align 8, !tbaa !32
  %8 = load i32, ptr %4, align 4, !tbaa !8
  %9 = sext i32 %8 to i64
  %10 = getelementptr inbounds ptr, ptr %7, i64 %9
  %11 = load ptr, ptr %10, align 8, !tbaa !33
  ret ptr %11
}

; Function Attrs: inlinehint nounwind uwtable
define internal i32 @Saig_ManPiNum(ptr noundef %0) #2 {
  %2 = alloca ptr, align 8
  store ptr %0, ptr %2, align 8, !tbaa !3
  %3 = load ptr, ptr %2, align 8, !tbaa !3
  %4 = getelementptr inbounds nuw %struct.Aig_Man_t_, ptr %3, i32 0, i32 9
  %5 = load i32, ptr %4, align 4, !tbaa !46
  ret i32 %5
}

; Function Attrs: inlinehint nounwind uwtable
define internal ptr @Aig_ManConst1(ptr noundef %0) #2 {
  %2 = alloca ptr, align 8
  store ptr %0, ptr %2, align 8, !tbaa !3
  %3 = load ptr, ptr %2, align 8, !tbaa !3
  %4 = getelementptr inbounds nuw %struct.Aig_Man_t_, ptr %3, i32 0, i32 6
  %5 = load ptr, ptr %4, align 8, !tbaa !45
  ret ptr %5
}

; Function Attrs: inlinehint nounwind uwtable
define internal ptr @Saig_ManLo(ptr noundef %0, i32 noundef %1) #2 {
  %3 = alloca ptr, align 8
  %4 = alloca i32, align 4
  store ptr %0, ptr %3, align 8, !tbaa !3
  store i32 %1, ptr %4, align 4, !tbaa !8
  %5 = load ptr, ptr %3, align 8, !tbaa !3
  %6 = getelementptr inbounds nuw %struct.Aig_Man_t_, ptr %5, i32 0, i32 2
  %7 = load ptr, ptr %6, align 8, !tbaa !40
  %8 = load ptr, ptr %3, align 8, !tbaa !3
  %9 = call i32 @Saig_ManPiNum(ptr noundef %8)
  %10 = load i32, ptr %4, align 4, !tbaa !8
  %11 = add nsw i32 %9, %10
  %12 = call ptr @Vec_PtrEntry(ptr noundef %7, i32 noundef %11)
  ret ptr %12
}

; Function Attrs: inlinehint nounwind uwtable
define internal ptr @Saig_ManLi(ptr noundef %0, i32 noundef %1) #2 {
  %3 = alloca ptr, align 8
  %4 = alloca i32, align 4
  store ptr %0, ptr %3, align 8, !tbaa !3
  store i32 %1, ptr %4, align 4, !tbaa !8
  %5 = load ptr, ptr %3, align 8, !tbaa !3
  %6 = getelementptr inbounds nuw %struct.Aig_Man_t_, ptr %5, i32 0, i32 3
  %7 = load ptr, ptr %6, align 8, !tbaa !44
  %8 = load ptr, ptr %3, align 8, !tbaa !3
  %9 = call i32 @Saig_ManPoNum(ptr noundef %8)
  %10 = load i32, ptr %4, align 4, !tbaa !8
  %11 = add nsw i32 %9, %10
  %12 = call ptr @Vec_PtrEntry(ptr noundef %7, i32 noundef %11)
  ret ptr %12
}

; Function Attrs: inlinehint nounwind uwtable
define internal i32 @Saig_ManRegNum(ptr noundef %0) #2 {
  %2 = alloca ptr, align 8
  store ptr %0, ptr %2, align 8, !tbaa !3
  %3 = load ptr, ptr %2, align 8, !tbaa !3
  %4 = getelementptr inbounds nuw %struct.Aig_Man_t_, ptr %3, i32 0, i32 8
  %5 = load i32, ptr %4, align 8, !tbaa !43
  ret i32 %5
}

; Function Attrs: nounwind uwtable
define void @Saig_ManMarkAutonomous(ptr noundef %0) #0 {
  %2 = alloca ptr, align 8
  %3 = alloca ptr, align 8
  %4 = alloca ptr, align 8
  %5 = alloca ptr, align 8
  %6 = alloca ptr, align 8
  %7 = alloca i32, align 4
  store ptr %0, ptr %2, align 8, !tbaa !3
  call void @llvm.lifetime.start.p0(i64 8, ptr %3) #9
  call void @llvm.lifetime.start.p0(i64 8, ptr %4) #9
  call void @llvm.lifetime.start.p0(i64 8, ptr %5) #9
  call void @llvm.lifetime.start.p0(i64 8, ptr %6) #9
  call void @llvm.lifetime.start.p0(i64 4, ptr %7) #9
  store i32 0, ptr %7, align 4, !tbaa !8
  br label %8

8:                                                ; preds = %32, %1
  %9 = load i32, ptr %7, align 4, !tbaa !8
  %10 = load ptr, ptr %2, align 8, !tbaa !3
  %11 = call i32 @Saig_ManRegNum(ptr noundef %10)
  %12 = icmp slt i32 %9, %11
  br i1 %12, label %13, label %21

13:                                               ; preds = %8
  %14 = load ptr, ptr %2, align 8, !tbaa !3
  %15 = load i32, ptr %7, align 4, !tbaa !8
  %16 = call ptr @Saig_ManLi(ptr noundef %14, i32 noundef %15)
  store ptr %16, ptr %5, align 8, !tbaa !24
  br i1 true, label %17, label %21

17:                                               ; preds = %13
  %18 = load ptr, ptr %2, align 8, !tbaa !3
  %19 = load i32, ptr %7, align 4, !tbaa !8
  %20 = call ptr @Saig_ManLo(ptr noundef %18, i32 noundef %19)
  store ptr %20, ptr %6, align 8, !tbaa !24
  br label %21

21:                                               ; preds = %17, %13, %8
  %22 = phi i1 [ false, %13 ], [ false, %8 ], [ true, %17 ]
  br i1 %22, label %23, label %35

23:                                               ; preds = %21
  %24 = load ptr, ptr %5, align 8, !tbaa !24
  %25 = load ptr, ptr %6, align 8, !tbaa !24
  %26 = getelementptr inbounds nuw %struct.Aig_Obj_t_, ptr %25, i32 0, i32 1
  store ptr %24, ptr %26, align 8, !tbaa !34
  %27 = load ptr, ptr %5, align 8, !tbaa !24
  %28 = getelementptr inbounds nuw %struct.Aig_Obj_t_, ptr %27, i32 0, i32 3
  %29 = load i64, ptr %28, align 8
  %30 = and i64 %29, -4294967233
  %31 = or i64 %30, 64
  store i64 %31, ptr %28, align 8
  br label %32

32:                                               ; preds = %23
  %33 = load i32, ptr %7, align 4, !tbaa !8
  %34 = add nsw i32 %33, 1
  store i32 %34, ptr %7, align 4, !tbaa !8
  br label %8, !llvm.loop !39

35:                                               ; preds = %21
  %36 = load ptr, ptr %2, align 8, !tbaa !3
  call void @Aig_ManIncrementTravId(ptr noundef %36)
  %37 = load ptr, ptr %2, align 8, !tbaa !3
  %38 = call ptr @Aig_ManStaticFanoutStart(ptr noundef %37)
  store ptr %38, ptr %3, align 8, !tbaa !10
  %39 = load ptr, ptr %2, align 8, !tbaa !3
  %40 = load ptr, ptr %2, align 8, !tbaa !3
  %41 = call ptr @Aig_ManConst1(ptr noundef %40)
  call void @Aig_ManMarkAutonomous_rec(ptr noundef %39, ptr noundef %41)
  store i32 0, ptr %7, align 4, !tbaa !8
  br label %42

42:                                               ; preds = %58, %35
  %43 = load i32, ptr %7, align 4, !tbaa !8
  %44 = load ptr, ptr %2, align 8, !tbaa !3
  %45 = call i32 @Saig_ManPiNum(ptr noundef %44)
  %46 = icmp slt i32 %43, %45
  br i1 %46, label %47, label %53

47:                                               ; preds = %42
  %48 = load ptr, ptr %2, align 8, !tbaa !3
  %49 = getelementptr inbounds nuw %struct.Aig_Man_t_, ptr %48, i32 0, i32 2
  %50 = load ptr, ptr %49, align 8, !tbaa !40
  %51 = load i32, ptr %7, align 4, !tbaa !8
  %52 = call ptr @Vec_PtrEntry(ptr noundef %50, i32 noundef %51)
  store ptr %52, ptr %4, align 8, !tbaa !24
  br label %53

53:                                               ; preds = %47, %42
  %54 = phi i1 [ false, %42 ], [ true, %47 ]
  br i1 %54, label %55, label %61

55:                                               ; preds = %53
  %56 = load ptr, ptr %2, align 8, !tbaa !3
  %57 = load ptr, ptr %4, align 8, !tbaa !24
  call void @Aig_ManMarkAutonomous_rec(ptr noundef %56, ptr noundef %57)
  br label %58

58:                                               ; preds = %55
  %59 = load i32, ptr %7, align 4, !tbaa !8
  %60 = add nsw i32 %59, 1
  store i32 %60, ptr %7, align 4, !tbaa !8
  br label %42, !llvm.loop !41

61:                                               ; preds = %53
  %62 = load ptr, ptr %3, align 8, !tbaa !10
  %63 = icmp ne ptr %62, null
  br i1 %63, label %64, label %66

64:                                               ; preds = %61
  %65 = load ptr, ptr %3, align 8, !tbaa !10
  call void @free(ptr noundef %65) #9
  store ptr null, ptr %3, align 8, !tbaa !10
  br label %67

66:                                               ; preds = %61
  br label %67

67:                                               ; preds = %66, %64
  store i32 0, ptr %7, align 4, !tbaa !8
  br label %68

68:                                               ; preds = %91, %67
  %69 = load i32, ptr %7, align 4, !tbaa !8
  %70 = load ptr, ptr %2, align 8, !tbaa !3
  %71 = call i32 @Saig_ManRegNum(ptr noundef %70)
  %72 = icmp slt i32 %69, %71
  br i1 %72, label %73, label %81

73:                                               ; preds = %68
  %74 = load ptr, ptr %2, align 8, !tbaa !3
  %75 = load i32, ptr %7, align 4, !tbaa !8
  %76 = call ptr @Saig_ManLi(ptr noundef %74, i32 noundef %75)
  store ptr %76, ptr %5, align 8, !tbaa !24
  br i1 true, label %77, label %81

77:                                               ; preds = %73
  %78 = load ptr, ptr %2, align 8, !tbaa !3
  %79 = load i32, ptr %7, align 4, !tbaa !8
  %80 = call ptr @Saig_ManLo(ptr noundef %78, i32 noundef %79)
  store ptr %80, ptr %6, align 8, !tbaa !24
  br label %81

81:                                               ; preds = %77, %73, %68
  %82 = phi i1 [ false, %73 ], [ false, %68 ], [ true, %77 ]
  br i1 %82, label %83, label %94

83:                                               ; preds = %81
  %84 = load ptr, ptr %6, align 8, !tbaa !24
  %85 = getelementptr inbounds nuw %struct.Aig_Obj_t_, ptr %84, i32 0, i32 1
  store ptr null, ptr %85, align 8, !tbaa !34
  %86 = load ptr, ptr %5, align 8, !tbaa !24
  %87 = getelementptr inbounds nuw %struct.Aig_Obj_t_, ptr %86, i32 0, i32 3
  %88 = load i64, ptr %87, align 8
  %89 = and i64 %88, -4294967233
  %90 = or i64 %89, 0
  store i64 %90, ptr %87, align 8
  br label %91

91:                                               ; preds = %83
  %92 = load i32, ptr %7, align 4, !tbaa !8
  %93 = add nsw i32 %92, 1
  store i32 %93, ptr %7, align 4, !tbaa !8
  br label %68, !llvm.loop !42

94:                                               ; preds = %81
  call void @llvm.lifetime.end.p0(i64 4, ptr %7) #9
  call void @llvm.lifetime.end.p0(i64 8, ptr %6) #9
  call void @llvm.lifetime.end.p0(i64 8, ptr %5) #9
  call void @llvm.lifetime.end.p0(i64 8, ptr %4) #9
  call void @llvm.lifetime.end.p0(i64 8, ptr %3) #9
  ret void
}